; ModuleID = '5/1107.c'
source_filename = "5/1107.c"
target datalayout = "e-m:e-p270:32:32-p271:32:32-p272:64:64-i64:64-f80:128-n8:16:32:64-S128"
target triple = "x86_64-pc-linux-gnu"

@.str = private unnamed_addr constant [4 x i8] c"%lf\00", align 1
@.str.1 = private unnamed_addr constant [3 x i8] c"%s\00", align 1
@.str.2 = private unnamed_addr constant [7 x i8] c"error\0A\00", align 1
@.str.3 = private unnamed_addr constant [4 x i8] c"yes\00", align 1
@.str.4 = private unnamed_addr constant [3 x i8] c"no\00", align 1

; Function Attrs: noinline nounwind uwtable
define dso_local i32 @main() #0 {
  %1 = alloca i32, align 4
  %2 = alloca [5 x [600 x i8]], align 16
  %3 = alloca i32, align 4
  %4 = alloca i32, align 4
  %5 = alloca i32, align 4
  %6 = alloca i32, align 4
  %7 = alloca double, align 8
  %8 = alloca double, align 8
  store i32 0, i32* %1, align 4
  store i32 0, i32* %6, align 4
  %9 = call i32 (i8*, ...) @__isoc99_scanf(i8* getelementptr inbounds ([4 x i8], [4 x i8]* @.str, i64 0, i64 0), double* %7)
  store i32 0, i32* %3, align 4
  br label %10

10:                                               ; preds = %19, %0
  %11 = load i32, i32* %3, align 4
  %12 = icmp slt i32 %11, 2
  br i1 %12, label %13, label %22

13:                                               ; preds = %10
  %14 = load i32, i32* %3, align 4
  %15 = sext i32 %14 to i64
  %16 = getelementptr inbounds [5 x [600 x i8]], [5 x [600 x i8]]* %2, i64 0, i64 %15
  %17 = getelementptr inbounds [600 x i8], [600 x i8]* %16, i64 0, i64 0
  %18 = call i32 (i8*, ...) @__isoc99_scanf(i8* getelementptr inbounds ([3 x i8], [3 x i8]* @.str.1, i64 0, i64 0), i8* %17)
  br label %19

19:                                               ; preds = %13
  %20 = load i32, i32* %3, align 4
  %21 = add nsw i32 %20, 1
  store i32 %21, i32* %3, align 4
  br label %10

22:                                               ; preds = %10
  %23 = getelementptr inbounds [5 x [600 x i8]], [5 x [600 x i8]]* %2, i64 0, i64 0
  %24 = getelementptr inbounds [600 x i8], [600 x i8]* %23, i64 0, i64 0
  %25 = call i64 @strlen(i8* %24) #3
  %26 = trunc i64 %25 to i32
  store i32 %26, i32* %4, align 4
  %27 = getelementptr inbounds [5 x [600 x i8]], [5 x [600 x i8]]* %2, i64 0, i64 1
  %28 = getelementptr inbounds [600 x i8], [600 x i8]* %27, i64 0, i64 0
  %29 = call i64 @strlen(i8* %28) #3
  %30 = trunc i64 %29 to i32
  store i32 %30, i32* %5, align 4
  %31 = load i32, i32* %4, align 4
  %32 = load i32, i32* %5, align 4
  %33 = icmp ne i32 %31, %32
  br i1 %33, label %34, label %36

34:                                               ; preds = %22
  %35 = call i32 (i8*, ...) @printf(i8* getelementptr inbounds ([7 x i8], [7 x i8]* @.str.2, i64 0, i64 0))
  store i32 0, i32* %1, align 4
  br label %157

36:                                               ; preds = %22
  store i32 0, i32* %3, align 4
  br label %37

37:                                               ; preds = %139, %36
  %38 = getelementptr inbounds [5 x [600 x i8]], [5 x [600 x i8]]* %2, i64 0, i64 0
  %39 = load i32, i32* %3, align 4
  %40 = sext i32 %39 to i64
  %41 = getelementptr inbounds [600 x i8], [600 x i8]* %38, i64 0, i64 %40
  %42 = load i8, i8* %41, align 1
  %43 = sext i8 %42 to i32
  %44 = icmp ne i32 %43, 0
  br i1 %44, label %45, label %53

45:                                               ; preds = %37
  %46 = getelementptr inbounds [5 x [600 x i8]], [5 x [600 x i8]]* %2, i64 0, i64 1
  %47 = load i32, i32* %3, align 4
  %48 = sext i32 %47 to i64
  %49 = getelementptr inbounds [600 x i8], [600 x i8]* %46, i64 0, i64 %48
  %50 = load i8, i8* %49, align 1
  %51 = sext i8 %50 to i32
  %52 = icmp ne i32 %51, 0
  br label %53

53:                                               ; preds = %45, %37
  %54 = phi i1 [ false, %37 ], [ %52, %45 ]
  br i1 %54, label %55, label %142

55:                                               ; preds = %53
  %56 = getelementptr inbounds [5 x [600 x i8]], [5 x [600 x i8]]* %2, i64 0, i64 0
  %57 = load i32, i32* %3, align 4
  %58 = sext i32 %57 to i64
  %59 = getelementptr inbounds [600 x i8], [600 x i8]* %56, i64 0, i64 %58
  %60 = load i8, i8* %59, align 1
  %61 = sext i8 %60 to i32
  %62 = icmp ne i32 %61, 65
  br i1 %62, label %63, label %87

63:                                               ; preds = %55
  %64 = getelementptr inbounds [5 x [600 x i8]], [5 x [600 x i8]]* %2, i64 0, i64 0
  %65 = load i32, i32* %3, align 4
  %66 = sext i32 %65 to i64
  %67 = getelementptr inbounds [600 x i8], [600 x i8]* %64, i64 0, i64 %66
  %68 = load i8, i8* %67, align 1
  %69 = sext i8 %68 to i32
  %70 = icmp ne i32 %69, 71
  br i1 %70, label %71, label %87

71:                                               ; preds = %63
  %72 = getelementptr inbounds [5 x [600 x i8]], [5 x [600 x i8]]* %2, i64 0, i64 0
  %73 = load i32, i32* %3, align 4
  %74 = sext i32 %73 to i64
  %75 = getelementptr inbounds [600 x i8], [600 x i8]* %72, i64 0, i64 %74
  %76 = load i8, i8* %75, align 1
  %77 = sext i8 %76 to i32
  %78 = icmp ne i32 %77, 67
  br i1 %78, label %79, label %87

79:                                               ; preds = %71
  %80 = getelementptr inbounds [5 x [600 x i8]], [5 x [600 x i8]]* %2, i64 0, i64 0
  %81 = load i32, i32* %3, align 4
  %82 = sext i32 %81 to i64
  %83 = getelementptr inbounds [600 x i8], [600 x i8]* %80, i64 0, i64 %82
  %84 = load i8, i8* %83, align 1
  %85 = sext i8 %84 to i32
  %86 = icmp ne i32 %85, 84
  br i1 %86, label %119, label %87

87:                                               ; preds = %79, %71, %63, %55
  %88 = getelementptr inbounds [5 x [600 x i8]], [5 x [600 x i8]]* %2, i64 0, i64 1
  %89 = load i32, i32* %3, align 4
  %90 = sext i32 %89 to i64
  %91 = getelementptr inbounds [600 x i8], [600 x i8]* %88, i64 0, i64 %90
  %92 = load i8, i8* %91, align 1
  %93 = sext i8 %92 to i32
  %94 = icmp ne i32 %93, 65
  br i1 %94, label %95, label %121

95:                                               ; preds = %87
  %96 = getelementptr inbounds [5 x [600 x i8]], [5 x [600 x i8]]* %2, i64 0, i64 1
  %97 = load i32, i32* %3, align 4
  %98 = sext i32 %97 to i64
  %99 = getelementptr inbounds [600 x i8], [600 x i8]* %96, i64 0, i64 %98
  %100 = load i8, i8* %99, align 1
  %101 = sext i8 %100 to i32
  %102 = icmp ne i32 %101, 71
  br i1 %102, label %103, label %121

103:                                              ; preds = %95
  %104 = getelementptr inbounds [5 x [600 x i8]], [5 x [600 x i8]]* %2, i64 0, i64 1
  %105 = load i32, i32* %3, align 4
  %106 = sext i32 %105 to i64
  %107 = getelementptr inbounds [600 x i8], [600 x i8]* %104, i64 0, i64 %106
  %108 = load i8, i8* %107, align 1
  %109 = sext i8 %108 to i32
  %110 = icmp ne i32 %109, 67
  br i1 %110, label %111, label %121

111:                                              ; preds = %103
  %112 = getelementptr inbounds [5 x [600 x i8]], [5 x [600 x i8]]* %2, i64 0, i64 1
  %113 = load i32, i32* %3, align 4
  %114 = sext i32 %113 to i64
  %115 = getelementptr inbounds [600 x i8], [600 x i8]* %112, i64 0, i64 %114
  %116 = load i8, i8* %115, align 1
  %117 = sext i8 %116 to i32
  %118 = icmp ne i32 %117, 84
  br i1 %118, label %119, label %121

119:                                              ; preds = %111, %79
  %120 = call i32 (i8*, ...) @printf(i8* getelementptr inbounds ([7 x i8], [7 x i8]* @.str.2, i64 0, i64 0))
  store i32 0, i32* %1, align 4
  br label %157

121:                                              ; preds = %111, %103, %95, %87
  %122 = getelementptr inbounds [5 x [600 x i8]], [5 x [600 x i8]]* %2, i64 0, i64 0
  %123 = load i32, i32* %3, align 4
  %124 = sext i32 %123 to i64
  %125 = getelementptr inbounds [600 x i8], [600 x i8]* %122, i64 0, i64 %124
  %126 = load i8, i8* %125, align 1
  %127 = sext i8 %126 to i32
  %128 = getelementptr inbounds [5 x [600 x i8]], [5 x [600 x i8]]* %2, i64 0, i64 1
  %129 = load i32, i32* %3, align 4
  %130 = sext i32 %129 to i64
  %131 = getelementptr inbounds [600 x i8], [600 x i8]* %128, i64 0, i64 %130
  %132 = load i8, i8* %131, align 1
  %133 = sext i8 %132 to i32
  %134 = icmp eq i32 %127, %133
  br i1 %134, label %135, label %138

135:                                              ; preds = %121
  %136 = load i32, i32* %6, align 4
  %137 = add nsw i32 %136, 1
  store i32 %137, i32* %6, align 4
  br label %138

138:                                              ; preds = %135, %121
  br label %139

139:                                              ; preds = %138
  %140 = load i32, i32* %3, align 4
  %141 = add nsw i32 %140, 1
  store i32 %141, i32* %3, align 4
  br label %37

142:                                              ; preds = %53
  %143 = load i32, i32* %6, align 4
  %144 = sitofp i32 %143 to double
  %145 = fmul double 1.000000e+00, %144
  %146 = load i32, i32* %4, align 4
  %147 = sitofp i32 %146 to double
  %148 = fdiv double %145, %147
  store double %148, double* %8, align 8
  %149 = load double, double* %8, align 8
  %150 = load double, double* %7, align 8
  %151 = fcmp ogt double %149, %150
  br i1 %151, label %152, label %154

152:                                              ; preds = %142
  %153 = call i32 (i8*, ...) @printf(i8* getelementptr inbounds ([4 x i8], [4 x i8]* @.str.3, i64 0, i64 0))
  br label %156

154:                                              ; preds = %142
  %155 = call i32 (i8*, ...) @printf(i8* getelementptr inbounds ([3 x i8], [3 x i8]* @.str.4, i64 0, i64 0))
  br label %156

156:                                              ; preds = %154, %152
  store i32 0, i32* %1, align 4
  br label %157

157:                                              ; preds = %156, %119, %34
  %158 = load i32, i32* %1, align 4
  ret i32 %158
}

declare dso_local i32 @__isoc99_scanf(i8*, ...) #1

; Function Attrs: nounwind readonly
declare dso_local i64 @strlen(i8*) #2

declare dso_local i32 @printf(i8*, ...) #1


!llvm.module.flags = !{!0}
!llvm.ident = !{!1}

!0 = !{i32 1, !"wchar_size", i32 4}
!1 = !{!"clang version 10.0.0-4ubuntu1 "}
