; ModuleID = 'source-C-CXX/4/1107.c'
source_filename = "source-C-CXX/4/1107.c"
target datalayout = "e-m:e-p270:32:32-p271:32:32-p272:64:64-i64:64-f80:128-n8:16:32:64-S128"
target triple = "x86_64-pc-linux-gnu"

@.str = private unnamed_addr constant [4 x i8] c"%lf\00", align 1
@.str.1 = private unnamed_addr constant [3 x i8] c"%s\00", align 1
@.str.3 = private unnamed_addr constant [4 x i8] c"yes\00", align 1
@.str.4 = private unnamed_addr constant [3 x i8] c"no\00", align 1
@str.5 = private unnamed_addr constant [6 x i8] c"error\00", align 1

; Function Attrs: nofree nounwind sspstrong uwtable
define dso_local i32 @main() local_unnamed_addr #0 {
  %1 = alloca [5 x [600 x i8]], align 16
  %2 = alloca double, align 8
  %3 = getelementptr inbounds [5 x [600 x i8]], [5 x [600 x i8]]* %1, i64 0, i64 0, i64 0
  call void @llvm.lifetime.start.p0i8(i64 3000, i8* nonnull %3) #5
  %4 = bitcast double* %2 to i8*
  call void @llvm.lifetime.start.p0i8(i64 8, i8* nonnull %4) #5
  %5 = call i32 (i8*, ...) @__isoc99_scanf(i8* getelementptr inbounds ([4 x i8], [4 x i8]* @.str, i64 0, i64 0), double* nonnull %2)
  %6 = call i32 (i8*, ...) @__isoc99_scanf(i8* getelementptr inbounds ([3 x i8], [3 x i8]* @.str.1, i64 0, i64 0), i8* nonnull %3)
  %7 = getelementptr inbounds [5 x [600 x i8]], [5 x [600 x i8]]* %1, i64 0, i64 1, i64 0
  %8 = call i32 (i8*, ...) @__isoc99_scanf(i8* getelementptr inbounds ([3 x i8], [3 x i8]* @.str.1, i64 0, i64 0), i8* nonnull %7)
  %9 = call i64 @strlen(i8* noundef nonnull %3) #6
  %10 = trunc i64 %9 to i32
  %11 = call i64 @strlen(i8* noundef nonnull %7) #6
  %12 = trunc i64 %11 to i32
  %13 = icmp eq i32 %10, %12
  br i1 %13, label %14, label %17

14:                                               ; preds = %0
  %15 = load i8, i8* %3, align 16, !tbaa !5
  %16 = icmp eq i8 %15, 0
  br i1 %16, label %38, label %19

17:                                               ; preds = %0
  %18 = call i32 @puts(i8* nonnull dereferenceable(1) getelementptr inbounds ([6 x i8], [6 x i8]* @str.5, i64 0, i64 0))
  br label %49

19:                                               ; preds = %14, %30
  %20 = phi i64 [ %34, %30 ], [ 0, %14 ]
  %21 = phi i8 [ %36, %30 ], [ %15, %14 ]
  %22 = phi i32 [ %33, %30 ], [ 0, %14 ]
  %23 = getelementptr inbounds [5 x [600 x i8]], [5 x [600 x i8]]* %1, i64 0, i64 1, i64 %20
  %24 = load i8, i8* %23, align 1, !tbaa !5
  %25 = icmp eq i8 %24, 0
  br i1 %25, label %38, label %26

26:                                               ; preds = %19
  switch i8 %21, label %28 [
    i8 65, label %27
    i8 71, label %27
    i8 67, label %27
    i8 84, label %27
  ]

27:                                               ; preds = %26, %26, %26, %26
  switch i8 %24, label %28 [
    i8 65, label %30
    i8 71, label %30
    i8 67, label %30
    i8 84, label %30
  ]

28:                                               ; preds = %27, %26
  %29 = call i32 @puts(i8* nonnull dereferenceable(1) getelementptr inbounds ([6 x i8], [6 x i8]* @str.5, i64 0, i64 0))
  br label %49

30:                                               ; preds = %27, %27, %27, %27
  %31 = icmp eq i8 %21, %24
  %32 = zext i1 %31 to i32
  %33 = add nuw nsw i32 %22, %32
  %34 = add nuw i64 %20, 1
  %35 = getelementptr inbounds [5 x [600 x i8]], [5 x [600 x i8]]* %1, i64 0, i64 0, i64 %34
  %36 = load i8, i8* %35, align 1, !tbaa !5
  %37 = icmp eq i8 %36, 0
  br i1 %37, label %38, label %19, !llvm.loop !8

38:                                               ; preds = %19, %30, %14
  %39 = phi i32 [ 0, %14 ], [ %33, %30 ], [ %22, %19 ]
  %40 = sitofp i32 %39 to double
  %41 = sitofp i32 %10 to double
  %42 = fdiv double %40, %41
  %43 = load double, double* %2, align 8, !tbaa !10
  %44 = fcmp ogt double %42, %43
  br i1 %44, label %45, label %47

45:                                               ; preds = %38
  %46 = call i32 (i8*, ...) @printf(i8* nonnull dereferenceable(1) getelementptr inbounds ([4 x i8], [4 x i8]* @.str.3, i64 0, i64 0))
  br label %49

47:                                               ; preds = %38
  %48 = call i32 (i8*, ...) @printf(i8* nonnull dereferenceable(1) getelementptr inbounds ([3 x i8], [3 x i8]* @.str.4, i64 0, i64 0))
  br label %49

49:                                               ; preds = %45, %47, %28, %17
  call void @llvm.lifetime.end.p0i8(i64 8, i8* nonnull %4) #5
  call void @llvm.lifetime.end.p0i8(i64 3000, i8* nonnull %3) #5
  ret i32 0
}

; Function Attrs: argmemonly mustprogress nofree nosync nounwind willreturn
declare void @llvm.lifetime.start.p0i8(i64 immarg, i8* nocapture) #1

; Function Attrs: nofree nounwind
declare noundef i32 @__isoc99_scanf(i8* nocapture noundef readonly, ...) local_unnamed_addr #2

; Function Attrs: argmemonly mustprogress nofree nounwind readonly willreturn
declare i64 @strlen(i8* nocapture) local_unnamed_addr #3

; Function Attrs: nofree nounwind
declare noundef i32 @printf(i8* nocapture noundef readonly, ...) local_unnamed_addr #2

; Function Attrs: argmemonly mustprogress nofree nosync nounwind willreturn
declare void @llvm.lifetime.end.p0i8(i64 immarg, i8* nocapture) #1

; Function Attrs: nofree nounwind
declare noundef i32 @puts(i8* nocapture noundef readonly) local_unnamed_addr #4


!llvm.module.flags = !{!0, !1, !2, !3}
!llvm.ident = !{!4}

!0 = !{i32 1, !"wchar_size", i32 4}
!1 = !{i32 7, !"PIC Level", i32 2}
!2 = !{i32 7, !"PIE Level", i32 2}
!3 = !{i32 7, !"uwtable", i32 1}
!4 = !{!"clang version 13.0.0"}
!5 = !{!6, !6, i64 0}
!6 = !{!"omnipotent char", !7, i64 0}
!7 = !{!"Simple C/C++ TBAA"}
!8 = distinct !{!8, !9}
!9 = !{!"llvm.loop.mustprogress"}
!10 = !{!11, !11, i64 0}
!11 = !{!"double", !6, i64 0}
